; Function Attrs: mustprogress nofree nounwind willreturn memory(read, inaccessiblemem: none) uwtable
define internal noundef i32 @_ZN11duckdb_zstdL16COVER_strict_cmpEPKvS1_(ptr noundef readonly captures(address) %0, ptr noundef readonly captures(address) %1) #18 {
  %3 = load ptr, ptr @_ZN11duckdb_zstdL10g_coverCtxE, align 8, !tbaa !42
  %4 = load i32, ptr %0, align 4, !tbaa !18
  %5 = load i32, ptr %1, align 4, !tbaa !18
  %6 = load ptr, ptr %3, align 8, !tbaa !34
  %7 = zext i32 %4 to i64
  %8 = getelementptr inbounds nuw i8, ptr %6, i64 %7
  %9 = zext i32 %5 to i64
  %10 = getelementptr inbounds nuw i8, ptr %6, i64 %9
  %11 = getelementptr inbounds nuw i8, ptr %3, i64 80
  %12 = load i32, ptr %11, align 8, !tbaa !39
  %13 = zext i32 %12 to i64
  %14 = tail call noundef i32 @memcmp(ptr noundef %8, ptr noundef %10, i64 noundef %13) #28
  %15 = icmp eq i32 %14, 0
  %16 = icmp ult ptr %0, %1
  %17 = select i1 %16, i32 -1, i32 1
  %.0 = select i1 %15, i32 %17, i32 %14
  ret i32 %.0
}